target datalayout = "e-m:e-p270:32:32-p271:32:32-p272:64:64-i64:64-i128:128-f80:128-n8:16:32:64-S128"
target triple = "x86_64-pc-linux-gnu"

%class.expr = type { %class.ast }
%class.ast = type { i32, i32, i32, i32 }
%class.app = type { %class.expr, ptr, i32, %struct.app_flags, [0 x ptr] }
%struct.app_flags = type <{ i16, i8, i8 }>

; Function Attrs: mustprogress nounwind uwtable
define linkonce_odr hidden noundef ptr @_ZNK3app7get_argEj(ptr noundef nonnull align 8 dereferenceable(32) %0, i32 noundef %1) #4 comdat align 2 {
  %3 = alloca ptr, align 8
  %4 = alloca i32, align 4
  store ptr %0, ptr %3, align 8, !tbaa !593
  store i32 %1, ptr %4, align 4, !tbaa !8
  %5 = load ptr, ptr %3, align 8
  %6 = getelementptr inbounds nuw %class.app, ptr %5, i32 0, i32 4
  %7 = load i32, ptr %4, align 4, !tbaa !8
  %8 = zext i32 %7 to i64
  %9 = getelementptr inbounds nuw [0 x ptr], ptr %6, i64 0, i64 %8
  %10 = load ptr, ptr %9, align 8, !tbaa !594
  ret ptr %10
}

; Function Attrs: mustprogress nounwind uwtable
define linkonce_odr hidden noundef i32 @_ZNK3app12get_num_argsEv(ptr noundef nonnull align 8 dereferenceable(32) %0) #4 comdat align 2 {
  %2 = alloca ptr, align 8
  store ptr %0, ptr %2, align 8, !tbaa !593
  %3 = load ptr, ptr %2, align 8
  %4 = getelementptr inbounds nuw %class.app, ptr %3, i32 0, i32 2
  %5 = load i32, ptr %4, align 8, !tbaa !601
  ret i32 %5
}

; Function Attrs: mustprogress uwtable
define hidden noundef zeroext i1 @_ZN3smt13quick_checker8all_argsEP3appb(ptr noundef nonnull align 8 dereferenceable(184) %0, ptr noundef %1, i1 noundef zeroext %2) #6 align 2 {
  %4 = alloca i1, align 1
  %5 = alloca ptr, align 8
  %6 = alloca ptr, align 8
  %7 = alloca i8, align 1
  %8 = alloca i32, align 4
  %9 = alloca i32, align 4
  %10 = alloca i32, align 4
  store ptr %0, ptr %5, align 8, !tbaa !629
  store ptr %1, ptr %6, align 8, !tbaa !593
  %11 = zext i1 %2 to i8
  store i8 %11, ptr %7, align 1, !tbaa !10
  %12 = load ptr, ptr %5, align 8
  call void @llvm.lifetime.start.p0(i64 4, ptr %8) #3
  %13 = load ptr, ptr %6, align 8, !tbaa !593
  %14 = call noundef i32 @_ZNK3app12get_num_argsEv(ptr noundef nonnull align 8 dereferenceable(32) %13)
  store i32 %14, ptr %8, align 4, !tbaa !8
  call void @llvm.lifetime.start.p0(i64 4, ptr %9) #3
  store i32 0, ptr %9, align 4, !tbaa !8
  br label %15

15:                                               ; preds = %29, %3
  %16 = load i32, ptr %9, align 4, !tbaa !8
  %17 = load i32, ptr %8, align 4, !tbaa !8
  %18 = icmp ult i32 %16, %17
  br i1 %18, label %20, label %19

19:                                               ; preds = %15
  store i32 2, ptr %10, align 4
  br label %32

20:                                               ; preds = %15
  %21 = load ptr, ptr %6, align 8, !tbaa !593
  %22 = load i32, ptr %9, align 4, !tbaa !8
  %23 = call noundef ptr @_ZNK3app7get_argEj(ptr noundef nonnull align 8 dereferenceable(32) %21, i32 noundef %22)
  %24 = load i8, ptr %7, align 1, !tbaa !10, !range !12, !noundef !13
  %25 = trunc i8 %24 to i1
  %26 = call noundef zeroext i1 @_ZN3smt13quick_checker5checkEP4exprb(ptr noundef nonnull align 8 dereferenceable(184) %12, ptr noundef %23, i1 noundef zeroext %25)
  br i1 %26, label %28, label %27

27:                                               ; preds = %20
  store i1 false, ptr %4, align 1
  store i32 1, ptr %10, align 4
  br label %32

28:                                               ; preds = %20
  br label %29

29:                                               ; preds = %28
  %30 = load i32, ptr %9, align 4, !tbaa !8
  %31 = add i32 %30, 1
  store i32 %31, ptr %9, align 4, !tbaa !8
  br label %15, !llvm.loop !679

32:                                               ; preds = %27, %19
  call void @llvm.lifetime.end.p0(i64 4, ptr %9) #3
  %33 = load i32, ptr %10, align 4
  switch i32 %33, label %35 [
    i32 2, label %34
  ]

34:                                               ; preds = %32
  store i1 true, ptr %4, align 1
  store i32 1, ptr %10, align 4
  br label %35

35:                                               ; preds = %34, %32
  call void @llvm.lifetime.end.p0(i64 4, ptr %8) #3
  %36 = load i1, ptr %4, align 1
  ret i1 %36
}